; Function Attrs: nofree norecurse nounwind memory(argmem: readwrite, inaccessiblemem: readwrite) uwtable
define range(i32 -226, 1) i32 @wc_GmacSetKey(ptr noundef %0, ptr noundef readonly captures(address_is_null) %1, i32 noundef %2) local_unnamed_addr #0 {
  %4 = alloca [16 x i8], align 16
  %5 = icmp eq ptr %0, null
  %6 = icmp eq ptr %1, null
  %or.cond = or i1 %5, %6
  br i1 %or.cond, label %16, label %7

7:                                                ; preds = %3
  call void @llvm.lifetime.start.p0(i64 16, ptr nonnull %4) #12
  switch i32 %2, label %wc_AesGcmSetKey.exit [
    i32 32, label %8
    i32 24, label %8
    i32 16, label %8
  ]

8:                                                ; preds = %7, %7, %7
  call void @llvm.memset.p0.i64(ptr noundef nonnull align 16 dereferenceable(16) %4, i8 0, i64 16, i1 false)
  %9 = call i32 @wc_AesSetKey(ptr noundef nonnull %0, ptr noundef nonnull readonly %1, i32 noundef %2, ptr noundef nonnull %4, i32 noundef 0)
  %10 = icmp eq i32 %9, 0
  br i1 %10, label %11, label %wc_AesGcmSetKey.exit

11:                                               ; preds = %8
  %12 = getelementptr inbounds nuw i8, ptr %0, i64 304
  %13 = call fastcc i32 @wc_AesEncrypt(ptr noundef %0, ptr noundef %4, ptr noundef %12)
  %14 = icmp eq i32 %13, 0
  br i1 %14, label %15, label %wc_AesGcmSetKey.exit

15:                                               ; preds = %11
  call void @GenerateM0(ptr noundef nonnull %12)
  br label %wc_AesGcmSetKey.exit

wc_AesGcmSetKey.exit:                             ; preds = %7, %8, %11, %15
  %.019.i = phi i32 [ -173, %7 ], [ 0, %15 ], [ %13, %11 ], [ %9, %8 ]
  call void @llvm.lifetime.end.p0(i64 16, ptr nonnull %4) #12
  br label %16

16:                                               ; preds = %3, %wc_AesGcmSetKey.exit
  %.0 = phi i32 [ %.019.i, %wc_AesGcmSetKey.exit ], [ -173, %3 ]
  ret i32 %.0
}